target datalayout = "e-m:e-p270:32:32-p271:32:32-p272:64:64-i64:64-i128:128-f80:128-n8:16:32:64-S128"
target triple = "x86_64-pc-linux-gnu"

%struct.ForEachState = type { ptr, i32 }
%struct.List = type { i32, i32, i32, ptr, [0 x %union.ListCell] }
%union.ListCell = type { ptr }
%struct.Expr = type { i32 }
%struct.TargetEntry = type { %struct.Expr, ptr, i16, ptr, i32, i32, i16, i8 }

; Function Attrs: nounwind uwtable
define dso_local ptr @extract_update_targetlist_colnos(ptr noundef %0) #0 {
  %2 = alloca ptr, align 8
  %3 = alloca ptr, align 8
  %4 = alloca i16, align 2
  %5 = alloca ptr, align 8
  %6 = alloca %struct.ForEachState, align 8
  %7 = alloca ptr, align 8
  store ptr %0, ptr %2, align 8
  call void @llvm.lifetime.start.p0(i64 8, ptr %3) #6
  store ptr null, ptr %3, align 8
  call void @llvm.lifetime.start.p0(i64 2, ptr %4) #6
  store i16 1, ptr %4, align 2
  call void @llvm.lifetime.start.p0(i64 8, ptr %5) #6
  call void @llvm.lifetime.start.p0(i64 16, ptr %6) #6
  %8 = getelementptr inbounds nuw %struct.ForEachState, ptr %6, i32 0, i32 0
  %9 = load ptr, ptr %2, align 8
  store ptr %9, ptr %8, align 8
  %10 = getelementptr inbounds nuw %struct.ForEachState, ptr %6, i32 0, i32 1
  store i32 0, ptr %10, align 8
  %11 = getelementptr i8, ptr %6, i64 12
  call void @llvm.memset.p0.i64(ptr align 4 %11, i8 0, i64 4, i1 false)
  br label %12

12:                                               ; preds = %57, %1
  %13 = getelementptr inbounds nuw %struct.ForEachState, ptr %6, i32 0, i32 0
  %14 = load ptr, ptr %13, align 8
  %15 = icmp ne ptr %14, null
  br i1 %15, label %16, label %33

16:                                               ; preds = %12
  %17 = getelementptr inbounds nuw %struct.ForEachState, ptr %6, i32 0, i32 1
  %18 = load i32, ptr %17, align 8
  %19 = getelementptr inbounds nuw %struct.ForEachState, ptr %6, i32 0, i32 0
  %20 = load ptr, ptr %19, align 8
  %21 = getelementptr inbounds nuw %struct.List, ptr %20, i32 0, i32 1
  %22 = load i32, ptr %21, align 4
  %23 = icmp slt i32 %18, %22
  br i1 %23, label %24, label %33

24:                                               ; preds = %16
  %25 = getelementptr inbounds nuw %struct.ForEachState, ptr %6, i32 0, i32 0
  %26 = load ptr, ptr %25, align 8
  %27 = getelementptr inbounds nuw %struct.List, ptr %26, i32 0, i32 3
  %28 = load ptr, ptr %27, align 8
  %29 = getelementptr inbounds nuw %struct.ForEachState, ptr %6, i32 0, i32 1
  %30 = load i32, ptr %29, align 8
  %31 = sext i32 %30 to i64
  %32 = getelementptr inbounds %union.ListCell, ptr %28, i64 %31
  store ptr %32, ptr %5, align 8
  br label %34

33:                                               ; preds = %16, %12
  store ptr null, ptr %5, align 8
  br label %34

34:                                               ; preds = %33, %24
  %35 = phi i32 [ 1, %24 ], [ 0, %33 ]
  %36 = icmp ne i32 %35, 0
  br i1 %36, label %38, label %37

37:                                               ; preds = %34
  call void @llvm.lifetime.end.p0(i64 16, ptr %6) #6
  br label %61

38:                                               ; preds = %34
  call void @llvm.lifetime.start.p0(i64 8, ptr %7) #6
  %39 = load ptr, ptr %5, align 8
  %40 = load ptr, ptr %39, align 8
  store ptr %40, ptr %7, align 8
  %41 = load ptr, ptr %7, align 8
  %42 = getelementptr inbounds nuw %struct.TargetEntry, ptr %41, i32 0, i32 7
  %43 = load i8, ptr %42, align 2, !range !4, !noundef !5
  %44 = trunc i8 %43 to i1
  br i1 %44, label %52, label %45

45:                                               ; preds = %38
  %46 = load ptr, ptr %3, align 8
  %47 = load ptr, ptr %7, align 8
  %48 = getelementptr inbounds nuw %struct.TargetEntry, ptr %47, i32 0, i32 2
  %49 = load i16, ptr %48, align 8
  %50 = sext i16 %49 to i32
  %51 = call ptr @lappend_int(ptr noundef %46, i32 noundef %50)
  store ptr %51, ptr %3, align 8
  br label %52

52:                                               ; preds = %45, %38
  %53 = load i16, ptr %4, align 2
  %54 = add i16 %53, 1
  store i16 %54, ptr %4, align 2
  %55 = load ptr, ptr %7, align 8
  %56 = getelementptr inbounds nuw %struct.TargetEntry, ptr %55, i32 0, i32 2
  store i16 %53, ptr %56, align 8
  call void @llvm.lifetime.end.p0(i64 8, ptr %7) #6
  br label %57

57:                                               ; preds = %52
  %58 = getelementptr inbounds nuw %struct.ForEachState, ptr %6, i32 0, i32 1
  %59 = load i32, ptr %58, align 8
  %60 = add i32 %59, 1
  store i32 %60, ptr %58, align 8
  br label %12, !llvm.loop !14

61:                                               ; preds = %37
  %62 = load ptr, ptr %3, align 8
  call void @llvm.lifetime.end.p0(i64 8, ptr %5) #6
  call void @llvm.lifetime.end.p0(i64 2, ptr %4) #6
  call void @llvm.lifetime.end.p0(i64 8, ptr %3) #6
  ret ptr %62
}