; Function Attrs: nounwind uwtable
define dso_local ptr @extract_update_targetlist_colnos(ptr noundef readonly captures(address_is_null) %0) local_unnamed_addr #0 {
  %2 = getelementptr inbounds nuw i8, ptr %0, i64 4
  %.not = icmp eq ptr %0, null
  br i1 %.not, label %._crit_edge, label %.lr.ph

.lr.ph:                                           ; preds = %1
  %3 = getelementptr inbounds nuw i8, ptr %0, i64 16
  %4 = load i32, ptr %2, align 4
  %5 = icmp sgt i32 %4, 0
  br i1 %5, label %.lr.ph26, label %._crit_edge

._crit_edge:                                      ; preds = %17, %.lr.ph, %1
  %.0.lcssa = phi ptr [ null, %1 ], [ null, %.lr.ph ], [ %.1, %17 ]
  ret ptr %.0.lcssa

.lr.ph26:                                         ; preds = %.lr.ph, %17
  %indvars.iv = phi i64 [ %indvars.iv.next, %17 ], [ 0, %.lr.ph ]
  %.0111824 = phi i16 [ %18, %17 ], [ 1, %.lr.ph ]
  %.01923 = phi ptr [ %.1, %17 ], [ null, %.lr.ph ]
  %6 = load ptr, ptr %3, align 8
  %7 = getelementptr inbounds nuw %union.ListCell, ptr %6, i64 %indvars.iv
  %8 = load ptr, ptr %7, align 8
  %9 = getelementptr inbounds nuw i8, ptr %8, i64 42
  %10 = load i8, ptr %9, align 2, !range !4, !noundef !5
  %11 = trunc nuw i8 %10 to i1
  br i1 %11, label %17, label %12

12:                                               ; preds = %.lr.ph26
  %13 = getelementptr inbounds nuw i8, ptr %8, i64 16
  %14 = load i16, ptr %13, align 8
  %15 = sext i16 %14 to i32
  %16 = tail call ptr @lappend_int(ptr noundef %.01923, i32 noundef %15) #7
  br label %17

17:                                               ; preds = %12, %.lr.ph26
  %.1 = phi ptr [ %.01923, %.lr.ph26 ], [ %16, %12 ]
  %18 = add i16 %.0111824, 1
  %19 = getelementptr inbounds nuw i8, ptr %8, i64 16
  store i16 %.0111824, ptr %19, align 8
  %indvars.iv.next = add nuw nsw i64 %indvars.iv, 1
  %20 = load i32, ptr %2, align 4
  %21 = sext i32 %20 to i64
  %22 = icmp slt i64 %indvars.iv.next, %21
  br i1 %22, label %.lr.ph26, label %._crit_edge
}